; Function Attrs: mustprogress uwtable
define dso_local void @_ZN4i18n12phonenumbers11AreaCodeMap15ReadAreaCodeMapEPKNS0_18PrefixDescriptionsE(ptr noundef nonnull align 8 captures(none) dereferenceable(16) %0, ptr noundef %1) local_unnamed_addr #3 align 2 personality ptr @__gxx_personality_v0 {
  %3 = tail call noalias noundef nonnull dereferenceable(48) ptr @_Znwm(i64 noundef 48) #9
  invoke void @_ZN4i18n12phonenumbers17DefaultMapStorageC1Ev(ptr noundef nonnull align 8 dereferenceable(44) %3)
          to label %4 unwind label %12

4:                                                ; preds = %2
  tail call void @_ZN4i18n12phonenumbers17DefaultMapStorage11ReadFromMapEPKNS0_18PrefixDescriptionsE(ptr noundef nonnull align 8 dereferenceable(44) %3, ptr noundef %1)
  %5 = getelementptr inbounds nuw i8, ptr %0, i64 8
  %6 = load ptr, ptr %5, align 8
  store ptr %3, ptr %5, align 8
  %7 = icmp eq ptr %6, null
  br i1 %7, label %_ZN5boost10scoped_ptrIKN4i18n12phonenumbers17DefaultMapStorageEE5resetEPS4_.exit, label %8

8:                                                ; preds = %4
  %9 = load ptr, ptr %6, align 8
  %10 = getelementptr inbounds nuw i8, ptr %9, i64 8
  %11 = load ptr, ptr %10, align 8
  tail call void %11(ptr noundef nonnull align 8 dereferenceable(44) %6) #8
  br label %_ZN5boost10scoped_ptrIKN4i18n12phonenumbers17DefaultMapStorageEE5resetEPS4_.exit

_ZN5boost10scoped_ptrIKN4i18n12phonenumbers17DefaultMapStorageEE5resetEPS4_.exit: ; preds = %4, %8
  ret void

12:                                               ; preds = %2
  %13 = landingpad { ptr, i32 }
          cleanup
  tail call void @_ZdlPv(ptr noundef nonnull %3) #10
  resume { ptr, i32 } %13
}